target datalayout = "e-m:e-p270:32:32-p271:32:32-p272:64:64-i64:64-i128:128-f80:128-n8:16:32:64-S128"
target triple = "x86_64-pc-linux-gnu"

%"class.nanobind::handle" = type { ptr }
%"struct.nanobind::detail::type_caster.877" = type { %"struct.nanobind::detail::type_caster_base.878" }
%"struct.nanobind::detail::type_caster_base.878" = type { ptr }
%"struct.nanobind::detail::tuple.885" = type { %"struct.nanobind::detail::type_caster.877" }
%class.anon.891 = type { { i64, i64 } }
%class.anon.893 = type { i8 }
%struct.capture.892 = type { %class.anon.891 }

; Function Attrs: alwaysinline mustprogress nounwind optsize uwtable
define linkonce_odr hidden noundef ptr @_ZNK8nanobind6handle3ptrEv(ptr noundef nonnull align 8 dereferenceable(8) %0) #5 comdat align 2 {
  %2 = alloca ptr, align 8
  store ptr %0, ptr %2, align 8, !tbaa !28
  %3 = load ptr, ptr %2, align 8
  %4 = getelementptr inbounds nuw %"class.nanobind::handle", ptr %3, i32 0, i32 0
  %5 = load ptr, ptr %4, align 8, !tbaa !30
  ret ptr %5
}

; Function Attrs: alwaysinline mustprogress nounwind optsize uwtable
define linkonce_odr hidden ptr @_ZN8nanobind6detail11type_casterIiiE8from_cppEiNS_9rv_policyEPNS0_12cleanup_listE(i32 noundef %0, i32 noundef %1, ptr noundef %2) #5 comdat align 2 personality ptr @__gxx_personality_v0 {
  %4 = alloca %"class.nanobind::handle", align 8
  %5 = alloca i32, align 4
  %6 = alloca i32, align 4
  %7 = alloca ptr, align 8
  store i32 %0, ptr %5, align 4, !tbaa !26
  store i32 %1, ptr %6, align 4, !tbaa !43
  store ptr %2, ptr %7, align 8, !tbaa !426
  %8 = load i32, ptr %5, align 4, !tbaa !26
  %9 = sext i32 %8 to i64
  %10 = invoke ptr @PyLong_FromLong(i64 noundef %9) #25
          to label %11 unwind label %15

11:                                               ; preds = %3
  invoke void @_ZN8nanobind6handleC2EPK7_object(ptr noundef nonnull align 8 dereferenceable(8) %4, ptr noundef %10) #25
          to label %12 unwind label %15

12:                                               ; preds = %11
  %13 = getelementptr inbounds nuw %"class.nanobind::handle", ptr %4, i32 0, i32 0
  %14 = load ptr, ptr %13, align 8
  ret ptr %14

15:                                               ; preds = %11, %3
  %16 = landingpad { ptr, i32 }
          catch ptr null
  %17 = extractvalue { ptr, i32 } %16, 0
  call void @__clang_call_terminate(ptr %17) #26
  unreachable
}

; Function Attrs: alwaysinline mustprogress optsize uwtable
define internal noundef i32 @_ZZN8nanobind12cpp_functionIZL30nanobind_init_test_classes_extRNS_7module_EE12BoundDerivediZL30nanobind_init_test_classes_extS2_E10HiddenBaseJEJNS_9is_methodENS_9is_getterENS_9rv_policyEEEENS_6objectEMT1_KFT0_DpT2_EDpRKT3_ENKUlPKS3_E_clESK_(ptr noundef nonnull align 8 dereferenceable(16) %0, ptr noundef %1) #8 align 2 {
  %3 = alloca ptr, align 8
  %4 = alloca ptr, align 8
  store ptr %0, ptr %3, align 8, !tbaa !23
  store ptr %1, ptr %4, align 8, !tbaa !1576
  %5 = load ptr, ptr %3, align 8
  %6 = load ptr, ptr %4, align 8, !tbaa !1576
  %7 = icmp eq ptr %6, null
  br i1 %7, label %10, label %8

8:                                                ; preds = %2
  %9 = getelementptr inbounds i8, ptr %6, i64 8
  br label %10

10:                                               ; preds = %8, %2
  %11 = phi ptr [ %9, %8 ], [ null, %2 ]
  %12 = getelementptr inbounds nuw %class.anon.891, ptr %5, i32 0, i32 0
  %13 = load { i64, i64 }, ptr %12, align 8, !tbaa !1608
  %14 = extractvalue { i64, i64 } %13, 1
  %15 = getelementptr inbounds i8, ptr %11, i64 %14
  %16 = extractvalue { i64, i64 } %13, 0
  %17 = and i64 %16, 1
  %18 = icmp ne i64 %17, 0
  br i1 %18, label %19, label %24

19:                                               ; preds = %10
  %20 = load ptr, ptr %15, align 8, !tbaa !38
  %21 = sub i64 %16, 1
  %22 = getelementptr i8, ptr %20, i64 %21, !nosanitize !219
  %23 = load ptr, ptr %22, align 8, !nosanitize !219
  br label %26

24:                                               ; preds = %10
  %25 = inttoptr i64 %16 to ptr
  br label %26

26:                                               ; preds = %24, %19
  %27 = phi ptr [ %23, %19 ], [ %25, %24 ]
  %28 = call noundef i32 %27(ptr noundef nonnull align 4 dereferenceable(4) %15) #25
  ret i32 %28
}

; Function Attrs: mustprogress nounwind optsize uwtable
define internal noundef ptr @_ZN8nanobind6detail16type_caster_baseIZL30nanobind_init_test_classes_extRNS_7module_EE12BoundDerivedEcvPS4_Ev(ptr noundef nonnull align 8 dereferenceable(8) %0) #1 align 2 {
  %2 = alloca ptr, align 8
  store ptr %0, ptr %2, align 8, !tbaa !1592
  %3 = load ptr, ptr %2, align 8
  %4 = getelementptr inbounds nuw %"struct.nanobind::detail::type_caster_base.878", ptr %3, i32 0, i32 0
  %5 = load ptr, ptr %4, align 8, !tbaa !1594
  ret ptr %5
}

; Function Attrs: alwaysinline mustprogress nounwind optsize uwtable
define internal noundef zeroext i1 @_ZN8nanobind6detail16type_caster_baseIZL30nanobind_init_test_classes_extRNS_7module_EE12BoundDerivedE11from_pythonENS_6handleEhPNS0_12cleanup_listE(ptr noundef nonnull align 8 dereferenceable(8) %0, ptr %1, i8 noundef zeroext %2, ptr noundef %3) #5 align 2 {
  %5 = alloca %"class.nanobind::handle", align 8
  %6 = alloca ptr, align 8
  %7 = alloca i8, align 1
  %8 = alloca ptr, align 8
  %9 = getelementptr inbounds nuw %"class.nanobind::handle", ptr %5, i32 0, i32 0
  store ptr %1, ptr %9, align 8
  store ptr %0, ptr %6, align 8, !tbaa !1592
  store i8 %2, ptr %7, align 1, !tbaa !42
  store ptr %3, ptr %8, align 8, !tbaa !426
  %10 = load ptr, ptr %6, align 8
  %11 = call noundef ptr @_ZNK8nanobind6handle3ptrEv(ptr noundef nonnull align 8 dereferenceable(8) %5) #25
  %12 = load i8, ptr %7, align 1, !tbaa !42
  %13 = load ptr, ptr %8, align 8, !tbaa !426
  %14 = getelementptr inbounds nuw %"struct.nanobind::detail::type_caster_base.878", ptr %10, i32 0, i32 0
  %15 = call noundef zeroext i1 @_ZN8nanobind6detail11nb_type_getEPKSt9type_infoP7_objecthPNS0_12cleanup_listEPPv(ptr noundef @_ZTIZL30nanobind_init_test_classes_extRN8nanobind7module_EE12BoundDerived, ptr noundef %11, i8 noundef zeroext %12, ptr noundef %13, ptr noundef %14) #24
  ret i1 %15
}

; Function Attrs: alwaysinline mustprogress nounwind optsize uwtable
define linkonce_odr hidden void @_ZN8nanobind6handleC2EPK7_object(ptr noundef nonnull align 8 dereferenceable(8) %0, ptr noundef %1) unnamed_addr #5 comdat align 2 {
  %3 = alloca ptr, align 8
  %4 = alloca ptr, align 8
  store ptr %0, ptr %3, align 8, !tbaa !28
  store ptr %1, ptr %4, align 8, !tbaa !21
  %5 = load ptr, ptr %3, align 8
  %6 = getelementptr inbounds nuw %"class.nanobind::handle", ptr %5, i32 0, i32 0
  %7 = load ptr, ptr %4, align 8, !tbaa !21
  store ptr %7, ptr %6, align 8, !tbaa !30
  ret void
}

; Function Attrs: alwaysinline mustprogress nounwind optsize uwtable
define internal noundef nonnull align 8 dereferenceable(8) ptr @_ZN8nanobind6detail5tupleIJNS0_11type_casterIZL30nanobind_init_test_classes_extRNS_7module_EE12BoundDerivediEEEE3getILm0EEERDav(ptr noundef nonnull align 8 dereferenceable(8) %0) #5 align 2 {
  %2 = alloca ptr, align 8
  store ptr %0, ptr %2, align 8, !tbaa !1600
  %3 = load ptr, ptr %2, align 8
  %4 = getelementptr inbounds nuw %"struct.nanobind::detail::tuple.885", ptr %3, i32 0, i32 0
  ret ptr %4
}

; Function Attrs: alwaysinline mustprogress optsize uwtable
define internal noundef ptr @_ZZN8nanobind6detail11func_createILb1ELb1EZNS_12cpp_functionIZL30nanobind_init_test_classes_extRNS_7module_EE12BoundDerivediZL30nanobind_init_test_classes_extS4_E10HiddenBaseJEJNS_9is_methodENS_9is_getterENS_9rv_policyEEEENS_6objectEMT1_KFT0_DpT2_EDpRKT3_EUlPKS5_E_iJSM_EJLm0EEJS7_S8_S9_EEEP7_objectOSB_PFT2_DpSH_ESt16integer_sequenceImJXspT4_EEEDpRKT5_ENKUlPvPSP_PhS9_PNS0_12cleanup_listEE_clES11_S12_S13_S9_S15_(ptr noundef nonnull align 1 dereferenceable(1) %0, ptr noundef %1, ptr noundef %2, ptr noundef %3, i32 noundef %4, ptr noundef %5) #8 align 2 {
  %7 = alloca ptr, align 8
  %8 = alloca ptr, align 8
  %9 = alloca ptr, align 8
  %10 = alloca ptr, align 8
  %11 = alloca ptr, align 8
  %12 = alloca i32, align 4
  %13 = alloca ptr, align 8
  %14 = alloca ptr, align 8
  %15 = alloca %"struct.nanobind::detail::tuple.885", align 8
  %16 = alloca %"class.nanobind::handle", align 8
  %17 = alloca i32, align 4
  %18 = alloca ptr, align 8
  %19 = alloca %"class.nanobind::handle", align 8
  store ptr %0, ptr %8, align 8, !tbaa !23
  store ptr %1, ptr %9, align 8, !tbaa !23
  store ptr %2, ptr %10, align 8, !tbaa !424
  store ptr %3, ptr %11, align 8, !tbaa !116
  store i32 %4, ptr %12, align 4, !tbaa !43
  store ptr %5, ptr %13, align 8, !tbaa !426
  call void @llvm.lifetime.start.p0(i64 8, ptr %14) #2
  %20 = load ptr, ptr %9, align 8, !tbaa !23
  store ptr %20, ptr %14, align 8, !tbaa !1612
  call void @llvm.lifetime.start.p0(i64 8, ptr %15) #2
  %21 = call noundef nonnull align 8 dereferenceable(8) ptr @_ZN8nanobind6detail5tupleIJNS0_11type_casterIZL30nanobind_init_test_classes_extRNS_7module_EE12BoundDerivediEEEE3getILm0EEERDav(ptr noundef nonnull align 8 dereferenceable(8) %15) #25
  %22 = load ptr, ptr %10, align 8, !tbaa !424
  %23 = getelementptr inbounds nuw ptr, ptr %22, i64 0
  %24 = load ptr, ptr %23, align 8, !tbaa !21
  call void @_ZN8nanobind6handleC2EPK7_object(ptr noundef nonnull align 8 dereferenceable(8) %16, ptr noundef %24) #25
  %25 = load ptr, ptr %11, align 8, !tbaa !116
  %26 = getelementptr inbounds nuw i8, ptr %25, i64 0
  %27 = load i8, ptr %26, align 1, !tbaa !42
  %28 = load ptr, ptr %13, align 8, !tbaa !426
  %29 = getelementptr inbounds nuw %"class.nanobind::handle", ptr %16, i32 0, i32 0
  %30 = load ptr, ptr %29, align 8
  %31 = call noundef zeroext i1 @_ZN8nanobind6detail16type_caster_baseIZL30nanobind_init_test_classes_extRNS_7module_EE12BoundDerivedE11from_pythonENS_6handleEhPNS0_12cleanup_listE(ptr noundef nonnull align 8 dereferenceable(8) %21, ptr %30, i8 noundef zeroext %27, ptr noundef %28) #24
  br i1 %31, label %33, label %32

32:                                               ; preds = %6
  store ptr inttoptr (i64 1 to ptr), ptr %7, align 8
  store i32 1, ptr %17, align 4
  br label %45

33:                                               ; preds = %6
  call void @llvm.lifetime.start.p0(i64 8, ptr %18) #2
  call void @llvm.lifetime.start.p0(i64 8, ptr %19) #2
  %34 = load ptr, ptr %14, align 8, !tbaa !1612
  %35 = getelementptr inbounds nuw %struct.capture.892, ptr %34, i32 0, i32 0
  %36 = call noundef nonnull align 8 dereferenceable(8) ptr @_ZN8nanobind6detail5tupleIJNS0_11type_casterIZL30nanobind_init_test_classes_extRNS_7module_EE12BoundDerivediEEEE3getILm0EEERDav(ptr noundef nonnull align 8 dereferenceable(8) %15) #25
  %37 = call noundef ptr @_ZN8nanobind6detail16type_caster_baseIZL30nanobind_init_test_classes_extRNS_7module_EE12BoundDerivedEcvPS4_Ev(ptr noundef nonnull align 8 dereferenceable(8) %36) #25
  %38 = call noundef i32 @_ZZN8nanobind12cpp_functionIZL30nanobind_init_test_classes_extRNS_7module_EE12BoundDerivediZL30nanobind_init_test_classes_extS2_E10HiddenBaseJEJNS_9is_methodENS_9is_getterENS_9rv_policyEEEENS_6objectEMT1_KFT0_DpT2_EDpRKT3_ENKUlPKS3_E_clESK_(ptr noundef nonnull align 8 dereferenceable(16) %35, ptr noundef %37) #25
  %39 = load i32, ptr %12, align 4, !tbaa !43
  %40 = load ptr, ptr %13, align 8, !tbaa !426
  %41 = call ptr @_ZN8nanobind6detail11type_casterIiiE8from_cppEiNS_9rv_policyEPNS0_12cleanup_listE(i32 noundef %38, i32 noundef %39, ptr noundef %40) #24
  %42 = getelementptr inbounds nuw %"class.nanobind::handle", ptr %19, i32 0, i32 0
  store ptr %41, ptr %42, align 8
  %43 = call noundef ptr @_ZNK8nanobind6handle3ptrEv(ptr noundef nonnull align 8 dereferenceable(8) %19) #25
  store ptr %43, ptr %18, align 8, !tbaa !21
  call void @llvm.lifetime.end.p0(i64 8, ptr %19) #2
  %44 = load ptr, ptr %18, align 8, !tbaa !21
  store ptr %44, ptr %7, align 8
  store i32 1, ptr %17, align 4
  call void @llvm.lifetime.end.p0(i64 8, ptr %18) #2
  br label %45

45:                                               ; preds = %33, %32
  call void @llvm.lifetime.end.p0(i64 8, ptr %15) #2
  call void @llvm.lifetime.end.p0(i64 8, ptr %14) #2
  %46 = load ptr, ptr %7, align 8
  ret ptr %46
}

; Function Attrs: inlinehint mustprogress optsize uwtable
define internal noundef ptr @_ZZN8nanobind6detail11func_createILb1ELb1EZNS_12cpp_functionIZL30nanobind_init_test_classes_extRNS_7module_EE12BoundDerivediZL30nanobind_init_test_classes_extS4_E10HiddenBaseJEJNS_9is_methodENS_9is_getterENS_9rv_policyEEEENS_6objectEMT1_KFT0_DpT2_EDpRKT3_EUlPKS5_E_iJSM_EJLm0EEJS7_S8_S9_EEEP7_objectOSB_PFT2_DpSH_ESt16integer_sequenceImJXspT4_EEEDpRKT5_ENUlPvPSP_PhS9_PNS0_12cleanup_listEE_8__invokeES11_S12_S13_S9_S15_(ptr noundef %0, ptr noundef %1, ptr noundef %2, i32 noundef %3, ptr noundef %4) #14 align 2 {
  %6 = alloca ptr, align 8
  %7 = alloca ptr, align 8
  %8 = alloca ptr, align 8
  %9 = alloca i32, align 4
  %10 = alloca ptr, align 8
  %11 = alloca %class.anon.893, align 1
  store ptr %0, ptr %6, align 8, !tbaa !23
  store ptr %1, ptr %7, align 8, !tbaa !424
  store ptr %2, ptr %8, align 8, !tbaa !116
  store i32 %3, ptr %9, align 4, !tbaa !43
  store ptr %4, ptr %10, align 8, !tbaa !426
  %12 = load ptr, ptr %6, align 8, !tbaa !23
  %13 = load ptr, ptr %7, align 8, !tbaa !424
  %14 = load ptr, ptr %8, align 8, !tbaa !116
  %15 = load i32, ptr %9, align 4, !tbaa !43
  %16 = load ptr, ptr %10, align 8, !tbaa !426
  %17 = call noundef ptr @_ZZN8nanobind6detail11func_createILb1ELb1EZNS_12cpp_functionIZL30nanobind_init_test_classes_extRNS_7module_EE12BoundDerivediZL30nanobind_init_test_classes_extS4_E10HiddenBaseJEJNS_9is_methodENS_9is_getterENS_9rv_policyEEEENS_6objectEMT1_KFT0_DpT2_EDpRKT3_EUlPKS5_E_iJSM_EJLm0EEJS7_S8_S9_EEEP7_objectOSB_PFT2_DpSH_ESt16integer_sequenceImJXspT4_EEEDpRKT5_ENKUlPvPSP_PhS9_PNS0_12cleanup_listEE_clES11_S12_S13_S9_S15_(ptr noundef nonnull align 1 dereferenceable(1) %11, ptr noundef %12, ptr noundef %13, ptr noundef %14, i32 noundef %15, ptr noundef %16) #25
  ret ptr %17
}