; Function Attrs: inlinehint mustprogress optsize uwtable
define internal noundef ptr @_ZZN8nanobind6detail11func_createILb1ELb1EZNS_12cpp_functionIZL30nanobind_init_test_classes_extRNS_7module_EE12BoundDerivediZL30nanobind_init_test_classes_extS4_E10HiddenBaseJEJNS_9is_methodENS_9is_getterENS_9rv_policyEEEENS_6objectEMT1_KFT0_DpT2_EDpRKT3_EUlPKS5_E_iJSM_EJLm0EEJS7_S8_S9_EEEP7_objectOSB_PFT2_DpSH_ESt16integer_sequenceImJXspT4_EEEDpRKT5_ENUlPvPSP_PhS9_PNS0_12cleanup_listEE_8__invokeES11_S12_S13_S9_S15_(ptr noundef readonly captures(none) %0, ptr noundef readonly captures(none) %1, ptr noundef readonly captures(none) %2, i32 %3, ptr noundef %4) #16 align 2 personality ptr @__gxx_personality_v0 {
  %6 = alloca %"struct.nanobind::detail::tuple.885", align 8
  call void @llvm.lifetime.start.p0(i64 8, ptr nonnull %6) #37
  %7 = load ptr, ptr %1, align 8, !tbaa !23
  %8 = load i8, ptr %2, align 1, !tbaa !61
  %9 = call noundef zeroext i1 @_ZN8nanobind6detail11nb_type_getEPKSt9type_infoP7_objecthPNS0_12cleanup_listEPPv(ptr noundef nonnull @_ZTIZL30nanobind_init_test_classes_extRN8nanobind7module_EE12BoundDerived, ptr noundef %7, i8 noundef zeroext %8, ptr noundef %4, ptr noundef nonnull align 8 dereferenceable(8) %6) #35
  br i1 %9, label %10, label %_ZZN8nanobind6detail11func_createILb1ELb1EZNS_12cpp_functionIZL30nanobind_init_test_classes_extRNS_7module_EE12BoundDerivediZL30nanobind_init_test_classes_extS4_E10HiddenBaseJEJNS_9is_methodENS_9is_getterENS_9rv_policyEEEENS_6objectEMT1_KFT0_DpT2_EDpRKT3_EUlPKS5_E_iJSM_EJLm0EEJS7_S8_S9_EEEP7_objectOSB_PFT2_DpSH_ESt16integer_sequenceImJXspT4_EEEDpRKT5_ENKUlPvPSP_PhS9_PNS0_12cleanup_listEE_clES11_S12_S13_S9_S15_.exit

10:                                               ; preds = %5
  %.val = load ptr, ptr %6, align 8, !tbaa !583
  %11 = icmp eq ptr %.val, null
  %12 = getelementptr inbounds nuw i8, ptr %.val, i64 8
  %spec.select.i = select i1 %11, ptr null, ptr %12
  %.unpack.i = load i64, ptr %0, align 8, !tbaa !590
  %.elt2.i = getelementptr inbounds nuw i8, ptr %0, i64 8
  %.unpack3.i = load i64, ptr %.elt2.i, align 8, !tbaa !590
  %13 = getelementptr inbounds i8, ptr %spec.select.i, i64 %.unpack3.i
  %14 = and i64 %.unpack.i, 1
  %.not.i = icmp eq i64 %14, 0
  br i1 %.not.i, label %20, label %15

15:                                               ; preds = %10
  %16 = load ptr, ptr %13, align 8, !tbaa !24
  %17 = getelementptr i8, ptr %16, i64 %.unpack.i
  %18 = getelementptr i8, ptr %17, i64 -1
  %19 = load ptr, ptr %18, align 8, !nosanitize !145
  br label %_ZZN8nanobind12cpp_functionIZL30nanobind_init_test_classes_extRNS_7module_EE12BoundDerivediZL30nanobind_init_test_classes_extS2_E10HiddenBaseJEJNS_9is_methodENS_9is_getterENS_9rv_policyEEEENS_6objectEMT1_KFT0_DpT2_EDpRKT3_ENKUlPKS3_E_clESK_.exit

20:                                               ; preds = %10
  %21 = inttoptr i64 %.unpack.i to ptr
  br label %_ZZN8nanobind12cpp_functionIZL30nanobind_init_test_classes_extRNS_7module_EE12BoundDerivediZL30nanobind_init_test_classes_extS2_E10HiddenBaseJEJNS_9is_methodENS_9is_getterENS_9rv_policyEEEENS_6objectEMT1_KFT0_DpT2_EDpRKT3_ENKUlPKS3_E_clESK_.exit

_ZZN8nanobind12cpp_functionIZL30nanobind_init_test_classes_extRNS_7module_EE12BoundDerivediZL30nanobind_init_test_classes_extS2_E10HiddenBaseJEJNS_9is_methodENS_9is_getterENS_9rv_policyEEEENS_6objectEMT1_KFT0_DpT2_EDpRKT3_ENKUlPKS3_E_clESK_.exit: ; preds = %15, %20
  %22 = phi ptr [ %19, %15 ], [ %21, %20 ]
  %23 = call noundef i32 %22(ptr noundef nonnull align 4 dereferenceable(4) %13) #38
  %24 = sext i32 %23 to i64
  %25 = invoke ptr @PyLong_FromLong(i64 noundef %24) #38
          to label %_ZZN8nanobind6detail11func_createILb1ELb1EZNS_12cpp_functionIZL30nanobind_init_test_classes_extRNS_7module_EE12BoundDerivediZL30nanobind_init_test_classes_extS4_E10HiddenBaseJEJNS_9is_methodENS_9is_getterENS_9rv_policyEEEENS_6objectEMT1_KFT0_DpT2_EDpRKT3_EUlPKS5_E_iJSM_EJLm0EEJS7_S8_S9_EEEP7_objectOSB_PFT2_DpSH_ESt16integer_sequenceImJXspT4_EEEDpRKT5_ENKUlPvPSP_PhS9_PNS0_12cleanup_listEE_clES11_S12_S13_S9_S15_.exit unwind label %26

26:                                               ; preds = %_ZZN8nanobind12cpp_functionIZL30nanobind_init_test_classes_extRNS_7module_EE12BoundDerivediZL30nanobind_init_test_classes_extS2_E10HiddenBaseJEJNS_9is_methodENS_9is_getterENS_9rv_policyEEEENS_6objectEMT1_KFT0_DpT2_EDpRKT3_ENKUlPKS3_E_clESK_.exit
  %27 = landingpad { ptr, i32 }
          catch ptr null
  %28 = extractvalue { ptr, i32 } %27, 0
  call void @__clang_call_terminate(ptr %28) #39
  unreachable

_ZZN8nanobind6detail11func_createILb1ELb1EZNS_12cpp_functionIZL30nanobind_init_test_classes_extRNS_7module_EE12BoundDerivediZL30nanobind_init_test_classes_extS4_E10HiddenBaseJEJNS_9is_methodENS_9is_getterENS_9rv_policyEEEENS_6objectEMT1_KFT0_DpT2_EDpRKT3_EUlPKS5_E_iJSM_EJLm0EEJS7_S8_S9_EEEP7_objectOSB_PFT2_DpSH_ESt16integer_sequenceImJXspT4_EEEDpRKT5_ENKUlPvPSP_PhS9_PNS0_12cleanup_listEE_clES11_S12_S13_S9_S15_.exit: ; preds = %_ZZN8nanobind12cpp_functionIZL30nanobind_init_test_classes_extRNS_7module_EE12BoundDerivediZL30nanobind_init_test_classes_extS2_E10HiddenBaseJEJNS_9is_methodENS_9is_getterENS_9rv_policyEEEENS_6objectEMT1_KFT0_DpT2_EDpRKT3_ENKUlPKS3_E_clESK_.exit, %5
  %.0.i = phi ptr [ inttoptr (i64 1 to ptr), %5 ], [ %25, %_ZZN8nanobind12cpp_functionIZL30nanobind_init_test_classes_extRNS_7module_EE12BoundDerivediZL30nanobind_init_test_classes_extS2_E10HiddenBaseJEJNS_9is_methodENS_9is_getterENS_9rv_policyEEEENS_6objectEMT1_KFT0_DpT2_EDpRKT3_ENKUlPKS3_E_clESK_.exit ]
  call void @llvm.lifetime.end.p0(i64 8, ptr nonnull %6) #37
  ret ptr %.0.i
}